target datalayout = "e-m:e-p270:32:32-p271:32:32-p272:64:64-i64:64-i128:128-f80:128-n8:16:32:64-S128"
target triple = "x86_64-unknown-linux-gnu"

%"class.QuantLib::AnalyticH1HWEngine::Fj_Helper" = type { i64, double, double, double, double, double, double, double, double, double }

; Function Attrs: mustprogress nounwind uwtable
define noundef double @_ZNK8QuantLib18AnalyticH1HWEngine9Fj_Helper1cEd(ptr noundef nonnull align 8 dereferenceable(80) %this, double noundef %t) #3 align 2 {
entry:
  %this.addr = alloca ptr, align 8
  %t.addr = alloca double, align 8
  store ptr %this, ptr %this.addr, align 8, !tbaa !3
  store double %t, ptr %t.addr, align 8, !tbaa !14
  %this1 = load ptr, ptr %this.addr, align 8
  %gamma_ = getelementptr inbounds nuw %"class.QuantLib::AnalyticH1HWEngine::Fj_Helper", ptr %this1, i32 0, i32 6
  %0 = load double, ptr %gamma_, align 8, !tbaa !25
  %gamma_2 = getelementptr inbounds nuw %"class.QuantLib::AnalyticH1HWEngine::Fj_Helper", ptr %this1, i32 0, i32 6
  %1 = load double, ptr %gamma_2, align 8, !tbaa !25
  %mul = fmul double %0, %1
  %kappa_ = getelementptr inbounds nuw %"class.QuantLib::AnalyticH1HWEngine::Fj_Helper", ptr %this1, i32 0, i32 4
  %2 = load double, ptr %kappa_, align 8, !tbaa !23
  %mul3 = fmul double 4.000000e+00, %2
  %div = fdiv double %mul, %mul3
  %kappa_4 = getelementptr inbounds nuw %"class.QuantLib::AnalyticH1HWEngine::Fj_Helper", ptr %this1, i32 0, i32 4
  %3 = load double, ptr %kappa_4, align 8, !tbaa !23
  %fneg = fneg double %3
  %4 = load double, ptr %t.addr, align 8, !tbaa !14
  %mul5 = fmul double %fneg, %4
  %call = call double @exp(double noundef %mul5) #13, !tbaa !55
  %sub = fsub double 1.000000e+00, %call
  %mul6 = fmul double %div, %sub
  ret double %mul6
}