; Function Attrs: mustprogress nofree nounwind willreturn memory(write, argmem: readwrite) uwtable
define noundef double @_ZNK8QuantLib18AnalyticH1HWEngine9Fj_Helper1cEd(ptr nocapture noundef nonnull readonly align 8 dereferenceable(80) %this, double noundef %t) local_unnamed_addr #10 align 2 {
entry:
  %gamma_ = getelementptr inbounds nuw i8, ptr %this, i64 48
  %0 = load double, ptr %gamma_, align 8, !tbaa !77
  %mul = fmul double %0, %0
  %kappa_ = getelementptr inbounds nuw i8, ptr %this, i64 32
  %1 = load double, ptr %kappa_, align 8, !tbaa !75
  %mul3 = fmul double %1, 4.000000e+00
  %div = fdiv double %mul, %mul3
  %fneg = fneg double %1
  %mul5 = fmul double %t, %fneg
  %call = tail call double @exp(double noundef %mul5) #24, !tbaa !83
  %sub = fsub double 1.000000e+00, %call
  %mul6 = fmul double %div, %sub
  ret double %mul6
}